target datalayout = "e-m:e-p270:32:32-p271:32:32-p272:64:64-i64:64-i128:128-f80:128-n8:16:32:64-S128"
target triple = "x86_64-pc-linux-gnu"

%struct.rb_data_type_struct = type { ptr, %struct.anon.2, ptr, ptr, i64 }
%struct.anon.2 = type { ptr, ptr, ptr, ptr, [1 x ptr] }
%struct.zstream = type { i64, i64, i64, i64, %struct.z_stream_s, ptr }
%struct.z_stream_s = type { ptr, i32, i64, ptr, i32, i64, ptr, ptr, ptr, ptr, ptr, i32, i64, i64 }
%struct.gzfile = type { %struct.zstream, i64, i32, i32, i64, i64, i64, i64, i32, i32, i64, ptr, ptr, ptr, ptr, i64, i64 }

@cGzError = internal global i64 0, align 8
@gzfile_data_type = internal constant %struct.rb_data_type_struct { ptr @.str.163, %struct.anon.2 { ptr @gzfile_mark, ptr @gzfile_free, ptr @gzfile_memsize, ptr null, [1 x ptr] zeroinitializer }, ptr null, ptr null, i64 1 }, align 8
@.str.165 = private unnamed_addr constant [19 x i8] c"closed gzip stream\00", align 1
@.str.166 = private unnamed_addr constant [26 x i8] c"header is already written\00", align 1

; Function Attrs: inlinehint nounwind sspstrong uwtable
define internal i32 @RB_NUM2UINT(i64 noundef %0) #3 {
  %2 = alloca i64, align 8
  %3 = alloca i64, align 8
  store i64 %0, ptr %2, align 8, !tbaa !6
  call void @llvm.lifetime.start.p0(i64 8, ptr %3) #23
  %4 = load i64, ptr %2, align 8, !tbaa !6
  %5 = call i64 @rb_num2uint(i64 noundef %4)
  store i64 %5, ptr %3, align 8, !tbaa !6
  %6 = load i64, ptr %3, align 8, !tbaa !6
  %7 = trunc i64 %6 to i32
  call void @llvm.lifetime.end.p0(i64 8, ptr %3) #23
  ret i32 %7
}

; Function Attrs: nounwind sspstrong uwtable
define internal ptr @get_gzfile(i64 noundef %0) #0 {
  %2 = alloca i64, align 8
  %3 = alloca ptr, align 8
  store i64 %0, ptr %2, align 8, !tbaa !6
  call void @llvm.lifetime.start.p0(i64 8, ptr %3) #23
  %4 = load i64, ptr %2, align 8, !tbaa !6
  %5 = call ptr @rb_check_typeddata(i64 noundef %4, ptr noundef @gzfile_data_type)
  store ptr %5, ptr %3, align 8, !tbaa !57
  %6 = load ptr, ptr %3, align 8, !tbaa !57
  %7 = getelementptr inbounds nuw %struct.gzfile, ptr %6, i32 0, i32 0
  %8 = getelementptr inbounds nuw %struct.zstream, ptr %7, i32 0, i32 0
  %9 = load i64, ptr %8, align 8, !tbaa !59
  %10 = and i64 %9, 1
  %11 = icmp ne i64 %10, 0
  br i1 %11, label %14, label %12

12:                                               ; preds = %1
  %13 = load i64, ptr @cGzError, align 8, !tbaa !6
  call void (i64, ptr, ...) @rb_raise(i64 noundef %13, ptr noundef @.str.165) #26
  unreachable

14:                                               ; preds = %1
  %15 = load ptr, ptr %3, align 8, !tbaa !57
  call void @llvm.lifetime.end.p0(i64 8, ptr %3) #23
  ret ptr %15
}

; Function Attrs: nounwind sspstrong uwtable
define internal i64 @rb_gzfile_set_mtime(i64 noundef %0, i64 noundef %1) #0 {
  %3 = alloca i64, align 8
  %4 = alloca i64, align 8
  %5 = alloca ptr, align 8
  %6 = alloca i64, align 8
  store i64 %0, ptr %3, align 8, !tbaa !6
  store i64 %1, ptr %4, align 8, !tbaa !6
  call void @llvm.lifetime.start.p0(i64 8, ptr %5) #23
  %7 = load i64, ptr %3, align 8, !tbaa !6
  %8 = call ptr @get_gzfile(i64 noundef %7)
  store ptr %8, ptr %5, align 8, !tbaa !57
  call void @llvm.lifetime.start.p0(i64 8, ptr %6) #23
  %9 = load ptr, ptr %5, align 8, !tbaa !57
  %10 = getelementptr inbounds nuw %struct.gzfile, ptr %9, i32 0, i32 0
  %11 = getelementptr inbounds nuw %struct.zstream, ptr %10, i32 0, i32 0
  %12 = load i64, ptr %11, align 8, !tbaa !59
  %13 = and i64 %12, 256
  %14 = icmp ne i64 %13, 0
  br i1 %14, label %15, label %17

15:                                               ; preds = %2
  %16 = load i64, ptr @cGzError, align 8, !tbaa !6
  call void (i64, ptr, ...) @rb_raise(i64 noundef %16, ptr noundef @.str.166) #26
  unreachable

17:                                               ; preds = %2
  %18 = load i64, ptr %4, align 8, !tbaa !6
  %19 = call i64 @rb_Integer(i64 noundef %18)
  store i64 %19, ptr %6, align 8, !tbaa !6
  %20 = load i64, ptr %6, align 8, !tbaa !6
  %21 = call i32 @RB_NUM2UINT(i64 noundef %20)
  %22 = zext i32 %21 to i64
  %23 = load ptr, ptr %5, align 8, !tbaa !57
  %24 = getelementptr inbounds nuw %struct.gzfile, ptr %23, i32 0, i32 4
  store i64 %22, ptr %24, align 8, !tbaa !51
  %25 = load ptr, ptr %5, align 8, !tbaa !57
  %26 = getelementptr inbounds nuw %struct.gzfile, ptr %25, i32 0, i32 0
  %27 = getelementptr inbounds nuw %struct.zstream, ptr %26, i32 0, i32 0
  %28 = load i64, ptr %27, align 8, !tbaa !59
  %29 = or i64 %28, 1024
  store i64 %29, ptr %27, align 8, !tbaa !59
  %30 = load i64, ptr %4, align 8, !tbaa !6
  call void @llvm.lifetime.end.p0(i64 8, ptr %6) #23
  call void @llvm.lifetime.end.p0(i64 8, ptr %5) #23
  ret i64 %30
}