; Function Attrs: nounwind sspstrong uwtable
define internal noundef i64 @rb_gzfile_set_mtime(i64 noundef %0, i64 noundef returned %1) #0 {
  %3 = tail call ptr @rb_check_typeddata(i64 noundef %0, ptr noundef nonnull @gzfile_data_type) #18
  %4 = load i64, ptr %3, align 8, !tbaa !113
  %5 = and i64 %4, 1
  %.not.i = icmp eq i64 %5, 0
  br i1 %.not.i, label %6, label %get_gzfile.exit

6:                                                ; preds = %2
  %7 = load i64, ptr @cGzError, align 8, !tbaa !6
  tail call void (i64, ptr, ...) @rb_raise(i64 noundef %7, ptr noundef nonnull @.str.165) #19
  unreachable

get_gzfile.exit:                                  ; preds = %2
  %8 = and i64 %4, 256
  %.not = icmp eq i64 %8, 0
  br i1 %.not, label %11, label %9

9:                                                ; preds = %get_gzfile.exit
  %10 = load i64, ptr @cGzError, align 8, !tbaa !6
  tail call void (i64, ptr, ...) @rb_raise(i64 noundef %10, ptr noundef nonnull @.str.166) #19
  unreachable

11:                                               ; preds = %get_gzfile.exit
  %12 = tail call i64 @rb_Integer(i64 noundef %1) #18
  %13 = tail call i64 @rb_num2uint(i64 noundef %12) #18
  %14 = and i64 %13, 4294967295
  %15 = getelementptr inbounds nuw i8, ptr %3, i64 168
  store i64 %14, ptr %15, align 8, !tbaa !119
  %16 = load i64, ptr %3, align 8, !tbaa !113
  %17 = or i64 %16, 1024
  store i64 %17, ptr %3, align 8, !tbaa !113
  ret i64 %1
}